; ModuleID = '9/30.c'
source_filename = "9/30.c"
target datalayout = "e-m:e-p270:32:32-p271:32:32-p272:64:64-i64:64-f80:128-n8:16:32:64-S128"
target triple = "x86_64-pc-linux-gnu"

%struct.anon = type { i32, i32, [10 x i8] }

@.str = private unnamed_addr constant [3 x i8] c"%d\00", align 1
@.str.1 = private unnamed_addr constant [6 x i8] c"%s %d\00", align 1
@.str.2 = private unnamed_addr constant [4 x i8] c"%s\0A\00", align 1

; Function Attrs: noinline nounwind uwtable
define dso_local i32 @main() #0 {
  %1 = alloca i32, align 4
  %2 = alloca i32, align 4
  %3 = alloca i32, align 4
  %4 = alloca i32, align 4
  %5 = alloca [100 x %struct.anon], align 16
  %6 = alloca %struct.anon, align 4
  store i32 0, i32* %1, align 4
  %7 = call i32 (i8*, ...) @__isoc99_scanf(i8* getelementptr inbounds ([3 x i8], [3 x i8]* @.str, i64 0, i64 0), i32* %2)
  store i32 0, i32* %3, align 4
  br label %8

8:                                                ; preds = %29, %0
  %9 = load i32, i32* %3, align 4
  %10 = load i32, i32* %2, align 4
  %11 = icmp slt i32 %9, %10
  br i1 %11, label %12, label %32

12:                                               ; preds = %8
  %13 = load i32, i32* %3, align 4
  %14 = sext i32 %13 to i64
  %15 = getelementptr inbounds [100 x %struct.anon], [100 x %struct.anon]* %5, i64 0, i64 %14
  %16 = getelementptr inbounds %struct.anon, %struct.anon* %15, i32 0, i32 2
  %17 = getelementptr inbounds [10 x i8], [10 x i8]* %16, i64 0, i64 0
  %18 = load i32, i32* %3, align 4
  %19 = sext i32 %18 to i64
  %20 = getelementptr inbounds [100 x %struct.anon], [100 x %struct.anon]* %5, i64 0, i64 %19
  %21 = getelementptr inbounds %struct.anon, %struct.anon* %20, i32 0, i32 0
  %22 = call i32 (i8*, ...) @__isoc99_scanf(i8* getelementptr inbounds ([6 x i8], [6 x i8]* @.str.1, i64 0, i64 0), i8* %17, i32* %21)
  %23 = load i32, i32* %3, align 4
  %24 = add nsw i32 %23, 1
  %25 = load i32, i32* %3, align 4
  %26 = sext i32 %25 to i64
  %27 = getelementptr inbounds [100 x %struct.anon], [100 x %struct.anon]* %5, i64 0, i64 %26
  %28 = getelementptr inbounds %struct.anon, %struct.anon* %27, i32 0, i32 1
  store i32 %24, i32* %28, align 4
  br label %29

29:                                               ; preds = %12
  %30 = load i32, i32* %3, align 4
  %31 = add nsw i32 %30, 1
  store i32 %31, i32* %3, align 4
  br label %8

32:                                               ; preds = %8
  store i32 0, i32* %3, align 4
  br label %33

33:                                               ; preds = %172, %32
  %34 = load i32, i32* %3, align 4
  %35 = load i32, i32* %2, align 4
  %36 = icmp slt i32 %34, %35
  br i1 %36, label %37, label %175

37:                                               ; preds = %33
  %38 = load i32, i32* %3, align 4
  %39 = add nsw i32 %38, 1
  store i32 %39, i32* %4, align 4
  br label %40

40:                                               ; preds = %168, %37
  %41 = load i32, i32* %4, align 4
  %42 = load i32, i32* %2, align 4
  %43 = icmp slt i32 %41, %42
  br i1 %43, label %44, label %171

44:                                               ; preds = %40
  %45 = load i32, i32* %3, align 4
  %46 = sext i32 %45 to i64
  %47 = getelementptr inbounds [100 x %struct.anon], [100 x %struct.anon]* %5, i64 0, i64 %46
  %48 = getelementptr inbounds %struct.anon, %struct.anon* %47, i32 0, i32 0
  %49 = load i32, i32* %48, align 4
  %50 = icmp sge i32 %49, 60
  br i1 %50, label %58, label %51

51:                                               ; preds = %44
  %52 = load i32, i32* %4, align 4
  %53 = sext i32 %52 to i64
  %54 = getelementptr inbounds [100 x %struct.anon], [100 x %struct.anon]* %5, i64 0, i64 %53
  %55 = getelementptr inbounds %struct.anon, %struct.anon* %54, i32 0, i32 0
  %56 = load i32, i32* %55, align 4
  %57 = icmp sge i32 %56, 60
  br i1 %57, label %58, label %135

58:                                               ; preds = %51, %44
  %59 = load i32, i32* %4, align 4
  %60 = sext i32 %59 to i64
  %61 = getelementptr inbounds [100 x %struct.anon], [100 x %struct.anon]* %5, i64 0, i64 %60
  %62 = getelementptr inbounds %struct.anon, %struct.anon* %61, i32 0, i32 0
  %63 = load i32, i32* %62, align 4
  %64 = load i32, i32* %3, align 4
  %65 = sext i32 %64 to i64
  %66 = getelementptr inbounds [100 x %struct.anon], [100 x %struct.anon]* %5, i64 0, i64 %65
  %67 = getelementptr inbounds %struct.anon, %struct.anon* %66, i32 0, i32 0
  %68 = load i32, i32* %67, align 4
  %69 = icmp sgt i32 %63, %68
  br i1 %69, label %70, label %89

70:                                               ; preds = %58
  %71 = load i32, i32* %3, align 4
  %72 = sext i32 %71 to i64
  %73 = getelementptr inbounds [100 x %struct.anon], [100 x %struct.anon]* %5, i64 0, i64 %72
  %74 = bitcast %struct.anon* %6 to i8*
  %75 = bitcast %struct.anon* %73 to i8*
  call void @llvm.memcpy.p0i8.p0i8.i64(i8* align 4 %74, i8* align 4 %75, i64 20, i1 false)
  %76 = load i32, i32* %3, align 4
  %77 = sext i32 %76 to i64
  %78 = getelementptr inbounds [100 x %struct.anon], [100 x %struct.anon]* %5, i64 0, i64 %77
  %79 = load i32, i32* %4, align 4
  %80 = sext i32 %79 to i64
  %81 = getelementptr inbounds [100 x %struct.anon], [100 x %struct.anon]* %5, i64 0, i64 %80
  %82 = bitcast %struct.anon* %78 to i8*
  %83 = bitcast %struct.anon* %81 to i8*
  call void @llvm.memcpy.p0i8.p0i8.i64(i8* align 4 %82, i8* align 4 %83, i64 20, i1 false)
  %84 = load i32, i32* %4, align 4
  %85 = sext i32 %84 to i64
  %86 = getelementptr inbounds [100 x %struct.anon], [100 x %struct.anon]* %5, i64 0, i64 %85
  %87 = bitcast %struct.anon* %86 to i8*
  %88 = bitcast %struct.anon* %6 to i8*
  call void @llvm.memcpy.p0i8.p0i8.i64(i8* align 4 %87, i8* align 4 %88, i64 20, i1 false)
  br label %134

89:                                               ; preds = %58
  %90 = load i32, i32* %3, align 4
  %91 = sext i32 %90 to i64
  %92 = getelementptr inbounds [100 x %struct.anon], [100 x %struct.anon]* %5, i64 0, i64 %91
  %93 = getelementptr inbounds %struct.anon, %struct.anon* %92, i32 0, i32 0
  %94 = load i32, i32* %93, align 4
  %95 = load i32, i32* %4, align 4
  %96 = sext i32 %95 to i64
  %97 = getelementptr inbounds [100 x %struct.anon], [100 x %struct.anon]* %5, i64 0, i64 %96
  %98 = getelementptr inbounds %struct.anon, %struct.anon* %97, i32 0, i32 0
  %99 = load i32, i32* %98, align 4
  %100 = icmp eq i32 %94, %99
  br i1 %100, label %101, label %133

101:                                              ; preds = %89
  %102 = load i32, i32* %4, align 4
  %103 = sext i32 %102 to i64
  %104 = getelementptr inbounds [100 x %struct.anon], [100 x %struct.anon]* %5, i64 0, i64 %103
  %105 = getelementptr inbounds %struct.anon, %struct.anon* %104, i32 0, i32 1
  %106 = load i32, i32* %105, align 4
  %107 = load i32, i32* %3, align 4
  %108 = sext i32 %107 to i64
  %109 = getelementptr inbounds [100 x %struct.anon], [100 x %struct.anon]* %5, i64 0, i64 %108
  %110 = getelementptr inbounds %struct.anon, %struct.anon* %109, i32 0, i32 1
  %111 = load i32, i32* %110, align 4
  %112 = icmp slt i32 %106, %111
  br i1 %112, label %113, label %132

113:                                              ; preds = %101
  %114 = load i32, i32* %3, align 4
  %115 = sext i32 %114 to i64
  %116 = getelementptr inbounds [100 x %struct.anon], [100 x %struct.anon]* %5, i64 0, i64 %115
  %117 = bitcast %struct.anon* %6 to i8*
  %118 = bitcast %struct.anon* %116 to i8*
  call void @llvm.memcpy.p0i8.p0i8.i64(i8* align 4 %117, i8* align 4 %118, i64 20, i1 false)
  %119 = load i32, i32* %3, align 4
  %120 = sext i32 %119 to i64
  %121 = getelementptr inbounds [100 x %struct.anon], [100 x %struct.anon]* %5, i64 0, i64 %120
  %122 = load i32, i32* %4, align 4
  %123 = sext i32 %122 to i64
  %124 = getelementptr inbounds [100 x %struct.anon], [100 x %struct.anon]* %5, i64 0, i64 %123
  %125 = bitcast %struct.anon* %121 to i8*
  %126 = bitcast %struct.anon* %124 to i8*
  call void @llvm.memcpy.p0i8.p0i8.i64(i8* align 4 %125, i8* align 4 %126, i64 20, i1 false)
  %127 = load i32, i32* %4, align 4
  %128 = sext i32 %127 to i64
  %129 = getelementptr inbounds [100 x %struct.anon], [100 x %struct.anon]* %5, i64 0, i64 %128
  %130 = bitcast %struct.anon* %129 to i8*
  %131 = bitcast %struct.anon* %6 to i8*
  call void @llvm.memcpy.p0i8.p0i8.i64(i8* align 4 %130, i8* align 4 %131, i64 20, i1 false)
  br label %132

132:                                              ; preds = %113, %101
  br label %133

133:                                              ; preds = %132, %89
  br label %134

134:                                              ; preds = %133, %70
  br label %167

135:                                              ; preds = %51
  %136 = load i32, i32* %4, align 4
  %137 = sext i32 %136 to i64
  %138 = getelementptr inbounds [100 x %struct.anon], [100 x %struct.anon]* %5, i64 0, i64 %137
  %139 = getelementptr inbounds %struct.anon, %struct.anon* %138, i32 0, i32 1
  %140 = load i32, i32* %139, align 4
  %141 = load i32, i32* %3, align 4
  %142 = sext i32 %141 to i64
  %143 = getelementptr inbounds [100 x %struct.anon], [100 x %struct.anon]* %5, i64 0, i64 %142
  %144 = getelementptr inbounds %struct.anon, %struct.anon* %143, i32 0, i32 1
  %145 = load i32, i32* %144, align 4
  %146 = icmp slt i32 %140, %145
  br i1 %146, label %147, label %166

147:                                              ; preds = %135
  %148 = load i32, i32* %3, align 4
  %149 = sext i32 %148 to i64
  %150 = getelementptr inbounds [100 x %struct.anon], [100 x %struct.anon]* %5, i64 0, i64 %149
  %151 = bitcast %struct.anon* %6 to i8*
  %152 = bitcast %struct.anon* %150 to i8*
  call void @llvm.memcpy.p0i8.p0i8.i64(i8* align 4 %151, i8* align 4 %152, i64 20, i1 false)
  %153 = load i32, i32* %3, align 4
  %154 = sext i32 %153 to i64
  %155 = getelementptr inbounds [100 x %struct.anon], [100 x %struct.anon]* %5, i64 0, i64 %154
  %156 = load i32, i32* %4, align 4
  %157 = sext i32 %156 to i64
  %158 = getelementptr inbounds [100 x %struct.anon], [100 x %struct.anon]* %5, i64 0, i64 %157
  %159 = bitcast %struct.anon* %155 to i8*
  %160 = bitcast %struct.anon* %158 to i8*
  call void @llvm.memcpy.p0i8.p0i8.i64(i8* align 4 %159, i8* align 4 %160, i64 20, i1 false)
  %161 = load i32, i32* %4, align 4
  %162 = sext i32 %161 to i64
  %163 = getelementptr inbounds [100 x %struct.anon], [100 x %struct.anon]* %5, i64 0, i64 %162
  %164 = bitcast %struct.anon* %163 to i8*
  %165 = bitcast %struct.anon* %6 to i8*
  call void @llvm.memcpy.p0i8.p0i8.i64(i8* align 4 %164, i8* align 4 %165, i64 20, i1 false)
  br label %166

166:                                              ; preds = %147, %135
  br label %167

167:                                              ; preds = %166, %134
  br label %168

168:                                              ; preds = %167
  %169 = load i32, i32* %4, align 4
  %170 = add nsw i32 %169, 1
  store i32 %170, i32* %4, align 4
  br label %40

171:                                              ; preds = %40
  br label %172

172:                                              ; preds = %171
  %173 = load i32, i32* %3, align 4
  %174 = add nsw i32 %173, 1
  store i32 %174, i32* %3, align 4
  br label %33

175:                                              ; preds = %33
  store i32 0, i32* %3, align 4
  br label %176

176:                                              ; preds = %187, %175
  %177 = load i32, i32* %3, align 4
  %178 = load i32, i32* %2, align 4
  %179 = icmp slt i32 %177, %178
  br i1 %179, label %180, label %190

180:                                              ; preds = %176
  %181 = load i32, i32* %3, align 4
  %182 = sext i32 %181 to i64
  %183 = getelementptr inbounds [100 x %struct.anon], [100 x %struct.anon]* %5, i64 0, i64 %182
  %184 = getelementptr inbounds %struct.anon, %struct.anon* %183, i32 0, i32 2
  %185 = getelementptr inbounds [10 x i8], [10 x i8]* %184, i64 0, i64 0
  %186 = call i32 (i8*, ...) @printf(i8* getelementptr inbounds ([4 x i8], [4 x i8]* @.str.2, i64 0, i64 0), i8* %185)
  br label %187

187:                                              ; preds = %180
  %188 = load i32, i32* %3, align 4
  %189 = add nsw i32 %188, 1
  store i32 %189, i32* %3, align 4
  br label %176

190:                                              ; preds = %176
  ret i32 0
}

declare dso_local i32 @__isoc99_scanf(i8*, ...) #1

; Function Attrs: argmemonly nounwind willreturn
declare void @llvm.memcpy.p0i8.p0i8.i64(i8* noalias nocapture writeonly, i8* noalias nocapture readonly, i64, i1 immarg) #2

declare dso_local i32 @printf(i8*, ...) #1


!llvm.module.flags = !{!0}
!llvm.ident = !{!1}

!0 = !{i32 1, !"wchar_size", i32 4}
!1 = !{!"clang version 10.0.0-4ubuntu1 "}
